(dp0
Vengine
p1
Vpdflatex
p2
sVpackages
p3
c__builtin__
set
p4
((lp5
Vcomment
p6
aVamsmath
p7
aVnewtxmath
p8
aVfontenc
p9
aVnewtxtext
p10
aVgraphicx
p11
atp12
Rp13
sVfiles_with_guttermarks
p14
g4
((lp15
V/Users/asanna/Documents/GitHub/SWIFT-J1749.4-2807/mnras_template.tex
p16
aV/Users/asanna/Documents/GitHub/SWIFT-J1749.4-2807/./mnras_template.tex
p17
aS'mnras_template.tex'
p18
aV/usr/local/texlive/2020/texmf-dist/tex/latex/amsfonts/amssymb.sty
p19
atp20
Rp21
sVsynctex
p22
I01
s.