(dp0
Vengine
p1
Vpdflatex
p2
sVpackages
p3
c__builtin__
set
p4
((lp5
Vamsmath
p6
aVnewtxmath
p7
aVnewtxtext
p8
aVgraphicx
p9
aVfontenc
p10
atp11
Rp12
sVfiles_with_guttermarks
p13
g4
((lp14
V/Users/asanna/Documents/GitHub/SWIFT-J1749.4-2807/./mnras_template.tex
p15
aS'mnras_template.tex'
p16
aV/usr/local/texlive/2020/texmf-dist/tex/latex/amsfonts/amssymb.sty
p17
aV/Users/asanna/Documents/GitHub/SWIFT-J1749.4-2807/mnras_template.tex
p18
atp19
Rp20
sVsynctex
p21
I01
s.